
RemoteControl.elf:     file format elf32-avr

Sections:
Idx Name          Size      VMA       LMA       File off  Algn
  0 .text         00000674  00000000  00000000  00000094  2**1
                  CONTENTS, ALLOC, LOAD, READONLY, CODE
  1 .data         00000010  00800060  00000674  00000708  2**0
                  CONTENTS, ALLOC, LOAD, DATA
  2 .bss          00000027  00800070  00800070  00000718  2**0
                  ALLOC
  3 .comment      00000030  00000000  00000000  00000718  2**0
                  CONTENTS, READONLY
  4 .note.gnu.avr.deviceinfo 0000003c  00000000  00000000  00000748  2**2
                  CONTENTS, READONLY
  5 .debug_info   0000048c  00000000  00000000  00000784  2**0
                  CONTENTS, READONLY, DEBUGGING
  6 .debug_abbrev 0000044e  00000000  00000000  00000c10  2**0
                  CONTENTS, READONLY, DEBUGGING
  7 .debug_line   00000109  00000000  00000000  0000105e  2**0
                  CONTENTS, READONLY, DEBUGGING
  8 .debug_str    0000017a  00000000  00000000  00001167  2**0
                  CONTENTS, READONLY, DEBUGGING

Disassembly of section .text:

00000000 <__vectors>:
   0:	58 c0       	rjmp	.+176    	; 0xb2 <__ctors_end>
   2:	72 c0       	rjmp	.+228    	; 0xe8 <__bad_interrupt>
   4:	71 c0       	rjmp	.+226    	; 0xe8 <__bad_interrupt>
   6:	28 c2       	rjmp	.+1104   	; 0x458 <__vector_3>
   8:	6f c0       	rjmp	.+222    	; 0xe8 <__bad_interrupt>
   a:	6e c0       	rjmp	.+220    	; 0xe8 <__bad_interrupt>
   c:	6d c0       	rjmp	.+218    	; 0xe8 <__bad_interrupt>
   e:	6c c0       	rjmp	.+216    	; 0xe8 <__bad_interrupt>
  10:	6b c0       	rjmp	.+214    	; 0xe8 <__bad_interrupt>
  12:	6a c0       	rjmp	.+212    	; 0xe8 <__bad_interrupt>
  14:	69 c0       	rjmp	.+210    	; 0xe8 <__bad_interrupt>
  16:	8c c2       	rjmp	.+1304   	; 0x530 <__vector_11>
  18:	67 c0       	rjmp	.+206    	; 0xe8 <__bad_interrupt>
  1a:	66 c0       	rjmp	.+204    	; 0xe8 <__bad_interrupt>
  1c:	65 c0       	rjmp	.+202    	; 0xe8 <__bad_interrupt>
  1e:	64 c0       	rjmp	.+200    	; 0xe8 <__bad_interrupt>
  20:	63 c0       	rjmp	.+198    	; 0xe8 <__bad_interrupt>
  22:	62 c0       	rjmp	.+196    	; 0xe8 <__bad_interrupt>
  24:	61 c0       	rjmp	.+194    	; 0xe8 <__bad_interrupt>

00000026 <__trampolines_end>:
	...
  36:	00 00       	nop
  38:	76 00       	.word	0x0076	; ????
  3a:	00 00       	nop
  3c:	75 00       	.word	0x0075	; ????
  3e:	7c 00       	.word	0x007c	; ????
  40:	7b 00       	.word	0x007b	; ????
  42:	00 00       	nop
	...

00000046 <ledIlluminationLevelTable>:
  46:	00 02 04 06 08 0a 0c 0e 10 12 14 16 18 1a 1c 1e     ................

00000056 <button>:
  56:	34 00 35 00 33 00 20 34 00 35 00 33 00 10 34 00     4.5.3. 4.5.3..4.
  66:	35 00 33 00 08 34 00 35 00 33 00 04 34 00 35 00     5.3..4.5.3..4.5.
  76:	33 00 02 34 00 35 00 33 00 01                       3..4.5.3..

00000080 <led>:
  80:	31 00 32 00 30 00 04 31 00 32 00 30 00 08 31 00     1.2.0..1.2.0..1.
  90:	32 00 30 00 10 31 00 32 00 30 00 20 31 00 32 00     2.0..1.2.0. 1.2.
  a0:	30 00 40 31 00 32 00 30 00 80 37 00 38 00 36 00     0.@1.2.0..7.8.6.
  b0:	01 00                                               ..

000000b2 <__ctors_end>:
  b2:	11 24       	eor	r1, r1
  b4:	1f be       	out	0x3f, r1	; 63
  b6:	cf e5       	ldi	r28, 0x5F	; 95
  b8:	d4 e0       	ldi	r29, 0x04	; 4
  ba:	de bf       	out	0x3e, r29	; 62
  bc:	cd bf       	out	0x3d, r28	; 61

000000be <__do_copy_data>:
  be:	10 e0       	ldi	r17, 0x00	; 0
  c0:	a0 e6       	ldi	r26, 0x60	; 96
  c2:	b0 e0       	ldi	r27, 0x00	; 0
  c4:	e4 e7       	ldi	r30, 0x74	; 116
  c6:	f6 e0       	ldi	r31, 0x06	; 6
  c8:	02 c0       	rjmp	.+4      	; 0xce <__do_copy_data+0x10>
  ca:	05 90       	lpm	r0, Z+
  cc:	0d 92       	st	X+, r0
  ce:	a0 37       	cpi	r26, 0x70	; 112
  d0:	b1 07       	cpc	r27, r17
  d2:	d9 f7       	brne	.-10     	; 0xca <__do_copy_data+0xc>

000000d4 <__do_clear_bss>:
  d4:	20 e0       	ldi	r18, 0x00	; 0
  d6:	a0 e7       	ldi	r26, 0x70	; 112
  d8:	b0 e0       	ldi	r27, 0x00	; 0
  da:	01 c0       	rjmp	.+2      	; 0xde <.do_clear_bss_start>

000000dc <.do_clear_bss_loop>:
  dc:	1d 92       	st	X+, r1

000000de <.do_clear_bss_start>:
  de:	a7 39       	cpi	r26, 0x97	; 151
  e0:	b2 07       	cpc	r27, r18
  e2:	e1 f7       	brne	.-8      	; 0xdc <.do_clear_bss_loop>
  e4:	87 d2       	rcall	.+1294   	; 0x5f4 <main>
  e6:	c4 c2       	rjmp	.+1416   	; 0x670 <_exit>

000000e8 <__bad_interrupt>:
  e8:	8b cf       	rjmp	.-234    	; 0x0 <__vectors>

000000ea <ButtonRepeatInterval>:
  ea:	08 95       	ret

000000ec <SourceIndicator>:
  ec:	8a 30       	cpi	r24, 0x0A	; 10
  ee:	11 f4       	brne	.+4      	; 0xf4 <SourceIndicator+0x8>
  f0:	87 e0       	ldi	r24, 0x07	; 7
  f2:	2d c1       	rjmp	.+602    	; 0x34e <switchLedTo>
  f4:	08 95       	ret

000000f6 <AudioSource>:
  f6:	2b c1       	rjmp	.+598    	; 0x34e <switchLedTo>

000000f8 <PanelIlluminationLevel>:
  f8:	e8 2f       	mov	r30, r24
  fa:	f0 e0       	ldi	r31, 0x00	; 0
  fc:	ea 5b       	subi	r30, 0xBA	; 186
  fe:	ff 4f       	sbci	r31, 0xFF	; 255
 100:	84 91       	lpm	r24, Z
 102:	a7 c2       	rjmp	.+1358   	; 0x652 <setPwmLvl>

00000104 <getActionByRxCommand>:
 104:	e8 2f       	mov	r30, r24
 106:	f0 e0       	ldi	r31, 0x00	; 0
 108:	ee 0f       	add	r30, r30
 10a:	ff 1f       	adc	r31, r31
 10c:	ea 5d       	subi	r30, 0xDA	; 218
 10e:	ff 4f       	sbci	r31, 0xFF	; 255
 110:	85 91       	lpm	r24, Z+
 112:	94 91       	lpm	r25, Z
 114:	08 95       	ret

00000116 <buttonInit>:
 116:	0f 93       	push	r16
 118:	1f 93       	push	r17
 11a:	cf 93       	push	r28
 11c:	df 93       	push	r29
 11e:	80 b7       	in	r24, 0x30	; 48
 120:	8b 7f       	andi	r24, 0xFB	; 251
 122:	80 bf       	out	0x30, r24	; 48
 124:	c6 e5       	ldi	r28, 0x56	; 86
 126:	d0 e0       	ldi	r29, 0x00	; 0
 128:	ce 01       	movw	r24, r28
 12a:	66 d1       	rcall	.+716    	; 0x3f8 <getGpioStructFromFlash>
 12c:	8c 01       	movw	r16, r24
 12e:	60 e0       	ldi	r22, 0x00	; 0
 130:	36 d1       	rcall	.+620    	; 0x39e <setGpioDirection>
 132:	61 e0       	ldi	r22, 0x01	; 1
 134:	c8 01       	movw	r24, r16
 136:	42 d1       	rcall	.+644    	; 0x3bc <setGpioState>
 138:	27 96       	adiw	r28, 0x07	; 7
 13a:	80 e0       	ldi	r24, 0x00	; 0
 13c:	c0 38       	cpi	r28, 0x80	; 128
 13e:	d8 07       	cpc	r29, r24
 140:	99 f7       	brne	.-26     	; 0x128 <buttonInit+0x12>
 142:	df 91       	pop	r29
 144:	cf 91       	pop	r28
 146:	1f 91       	pop	r17
 148:	0f 91       	pop	r16
 14a:	08 95       	ret

0000014c <getButtonStatus>:
 14c:	27 e0       	ldi	r18, 0x07	; 7
 14e:	82 9f       	mul	r24, r18
 150:	c0 01       	movw	r24, r0
 152:	11 24       	eor	r1, r1
 154:	8a 5a       	subi	r24, 0xAA	; 170
 156:	9f 4f       	sbci	r25, 0xFF	; 255
 158:	4f d1       	rcall	.+670    	; 0x3f8 <getGpioStructFromFlash>
 15a:	40 c1       	rjmp	.+640    	; 0x3dc <getGpioState>

0000015c <buttonHandler>:
 15c:	0f 93       	push	r16
 15e:	1f 93       	push	r17
 160:	cf 93       	push	r28
 162:	c8 2f       	mov	r28, r24
 164:	8b 01       	movw	r16, r22
 166:	f2 df       	rcall	.-28     	; 0x14c <getButtonStatus>
 168:	f8 01       	movw	r30, r16
 16a:	90 81       	ld	r25, Z
 16c:	21 81       	ldd	r18, Z+1	; 0x01
 16e:	32 81       	ldd	r19, Z+2	; 0x02
 170:	e9 2f       	mov	r30, r25
 172:	f0 e0       	ldi	r31, 0x00	; 0
 174:	ee 0f       	add	r30, r30
 176:	ff 1f       	adc	r31, r31
 178:	eb 59       	subi	r30, 0x9B	; 155
 17a:	ff 4f       	sbci	r31, 0xFF	; 255
 17c:	01 90       	ld	r0, Z+
 17e:	f0 81       	ld	r31, Z
 180:	e0 2d       	mov	r30, r0
 182:	09 94       	ijmp
 184:	81 11       	cpse	r24, r1
 186:	b1 c0       	rjmp	.+354    	; 0x2ea <buttonHandler+0x18e>
 188:	80 e2       	ldi	r24, 0x20	; 32
 18a:	93 e0       	ldi	r25, 0x03	; 3
 18c:	90 93 61 00 	sts	0x0061, r25	; 0x800061 <__data_start+0x1>
 190:	80 93 60 00 	sts	0x0060, r24	; 0x800060 <__data_start>
 194:	91 e0       	ldi	r25, 0x01	; 1
 196:	a9 c0       	rjmp	.+338    	; 0x2ea <buttonHandler+0x18e>
 198:	81 30       	cpi	r24, 0x01	; 1
 19a:	19 f4       	brne	.+6      	; 0x1a2 <buttonHandler+0x46>
 19c:	10 92 71 00 	sts	0x0071, r1	; 0x800071 <debounceCounter.1862>
 1a0:	a3 c0       	rjmp	.+326    	; 0x2e8 <buttonHandler+0x18c>
 1a2:	40 91 71 00 	lds	r20, 0x0071	; 0x800071 <debounceCounter.1862>
 1a6:	4f 5f       	subi	r20, 0xFF	; 255
 1a8:	40 93 71 00 	sts	0x0071, r20	; 0x800071 <debounceCounter.1862>
 1ac:	45 36       	cpi	r20, 0x65	; 101
 1ae:	08 f4       	brcc	.+2      	; 0x1b2 <buttonHandler+0x56>
 1b0:	9c c0       	rjmp	.+312    	; 0x2ea <buttonHandler+0x18e>
 1b2:	20 e0       	ldi	r18, 0x00	; 0
 1b4:	30 e0       	ldi	r19, 0x00	; 0
 1b6:	92 e0       	ldi	r25, 0x02	; 2
 1b8:	98 c0       	rjmp	.+304    	; 0x2ea <buttonHandler+0x18e>
 1ba:	81 30       	cpi	r24, 0x01	; 1
 1bc:	21 f4       	brne	.+8      	; 0x1c6 <buttonHandler+0x6a>
 1be:	10 92 71 00 	sts	0x0071, r1	; 0x800071 <debounceCounter.1862>
 1c2:	52 e0       	ldi	r21, 0x02	; 2
 1c4:	0e c0       	rjmp	.+28     	; 0x1e2 <buttonHandler+0x86>
 1c6:	2f 5f       	subi	r18, 0xFF	; 255
 1c8:	3f 4f       	sbci	r19, 0xFF	; 255
 1ca:	21 32       	cpi	r18, 0x21	; 33
 1cc:	f3 e0       	ldi	r31, 0x03	; 3
 1ce:	3f 07       	cpc	r19, r31
 1d0:	08 f4       	brcc	.+2      	; 0x1d4 <buttonHandler+0x78>
 1d2:	8b c0       	rjmp	.+278    	; 0x2ea <buttonHandler+0x18e>
 1d4:	93 e0       	ldi	r25, 0x03	; 3
 1d6:	89 c0       	rjmp	.+274    	; 0x2ea <buttonHandler+0x18e>
 1d8:	81 30       	cpi	r24, 0x01	; 1
 1da:	39 f4       	brne	.+14     	; 0x1ea <buttonHandler+0x8e>
 1dc:	10 92 71 00 	sts	0x0071, r1	; 0x800071 <debounceCounter.1862>
 1e0:	53 e0       	ldi	r21, 0x03	; 3
 1e2:	50 93 70 00 	sts	0x0070, r21	; 0x800070 <__data_end>
 1e6:	94 e0       	ldi	r25, 0x04	; 4
 1e8:	80 c0       	rjmp	.+256    	; 0x2ea <buttonHandler+0x18e>
 1ea:	2f 5f       	subi	r18, 0xFF	; 255
 1ec:	3f 4f       	sbci	r19, 0xFF	; 255
 1ee:	60 91 60 00 	lds	r22, 0x0060	; 0x800060 <__data_start>
 1f2:	70 91 61 00 	lds	r23, 0x0061	; 0x800061 <__data_start+0x1>
 1f6:	62 17       	cp	r22, r18
 1f8:	73 07       	cpc	r23, r19
 1fa:	08 f0       	brcs	.+2      	; 0x1fe <buttonHandler+0xa2>
 1fc:	76 c0       	rjmp	.+236    	; 0x2ea <buttonHandler+0x18e>
 1fe:	c2 30       	cpi	r28, 0x02	; 2
 200:	21 f1       	breq	.+72     	; 0x24a <buttonHandler+0xee>
 202:	68 f4       	brcc	.+26     	; 0x21e <buttonHandler+0xc2>
 204:	cc 23       	and	r28, r28
 206:	c9 f0       	breq	.+50     	; 0x23a <buttonHandler+0xde>
 208:	c1 30       	cpi	r28, 0x01	; 1
 20a:	09 f0       	breq	.+2      	; 0x20e <buttonHandler+0xb2>
 20c:	68 c0       	rjmp	.+208    	; 0x2de <buttonHandler+0x182>
 20e:	28 ee       	ldi	r18, 0xE8	; 232
 210:	33 e0       	ldi	r19, 0x03	; 3
 212:	30 93 61 00 	sts	0x0061, r19	; 0x800061 <__data_start+0x1>
 216:	20 93 60 00 	sts	0x0060, r18	; 0x800060 <__data_start>
 21a:	39 ea       	ldi	r19, 0xA9	; 169
 21c:	2d c0       	rjmp	.+90     	; 0x278 <buttonHandler+0x11c>
 21e:	c4 30       	cpi	r28, 0x04	; 4
 220:	21 f1       	breq	.+72     	; 0x26a <buttonHandler+0x10e>
 222:	d8 f0       	brcs	.+54     	; 0x25a <buttonHandler+0xfe>
 224:	c5 30       	cpi	r28, 0x05	; 5
 226:	09 f0       	breq	.+2      	; 0x22a <buttonHandler+0xce>
 228:	5a c0       	rjmp	.+180    	; 0x2de <buttonHandler+0x182>
 22a:	e4 ef       	ldi	r30, 0xF4	; 244
 22c:	f1 e0       	ldi	r31, 0x01	; 1
 22e:	f0 93 61 00 	sts	0x0061, r31	; 0x800061 <__data_start+0x1>
 232:	e0 93 60 00 	sts	0x0060, r30	; 0x800060 <__data_start>
 236:	36 ea       	ldi	r19, 0xA6	; 166
 238:	1f c0       	rjmp	.+62     	; 0x278 <buttonHandler+0x11c>
 23a:	af ef       	ldi	r26, 0xFF	; 255
 23c:	bf ef       	ldi	r27, 0xFF	; 255
 23e:	b0 93 61 00 	sts	0x0061, r27	; 0x800061 <__data_start+0x1>
 242:	a0 93 60 00 	sts	0x0060, r26	; 0x800060 <__data_start>
 246:	3c ea       	ldi	r19, 0xAC	; 172
 248:	17 c0       	rjmp	.+46     	; 0x278 <buttonHandler+0x11c>
 24a:	2f ef       	ldi	r18, 0xFF	; 255
 24c:	3f ef       	ldi	r19, 0xFF	; 255
 24e:	30 93 61 00 	sts	0x0061, r19	; 0x800061 <__data_start+0x1>
 252:	20 93 60 00 	sts	0x0060, r18	; 0x800060 <__data_start>
 256:	3b ea       	ldi	r19, 0xAB	; 171
 258:	0f c0       	rjmp	.+30     	; 0x278 <buttonHandler+0x11c>
 25a:	48 ee       	ldi	r20, 0xE8	; 232
 25c:	53 e0       	ldi	r21, 0x03	; 3
 25e:	50 93 61 00 	sts	0x0061, r21	; 0x800061 <__data_start+0x1>
 262:	40 93 60 00 	sts	0x0060, r20	; 0x800060 <__data_start>
 266:	3a ea       	ldi	r19, 0xAA	; 170
 268:	07 c0       	rjmp	.+14     	; 0x278 <buttonHandler+0x11c>
 26a:	64 ef       	ldi	r22, 0xF4	; 244
 26c:	71 e0       	ldi	r23, 0x01	; 1
 26e:	70 93 61 00 	sts	0x0061, r23	; 0x800061 <__data_start+0x1>
 272:	60 93 60 00 	sts	0x0060, r22	; 0x800060 <__data_start>
 276:	35 ea       	ldi	r19, 0xA5	; 165
 278:	3c b9       	out	0x0c, r19	; 12
 27a:	31 c0       	rjmp	.+98     	; 0x2de <buttonHandler+0x182>
 27c:	81 11       	cpse	r24, r1
 27e:	05 c0       	rjmp	.+10     	; 0x28a <buttonHandler+0x12e>
 280:	10 92 71 00 	sts	0x0071, r1	; 0x800071 <debounceCounter.1862>
 284:	90 91 70 00 	lds	r25, 0x0070	; 0x800070 <__data_end>
 288:	30 c0       	rjmp	.+96     	; 0x2ea <buttonHandler+0x18e>
 28a:	70 91 71 00 	lds	r23, 0x0071	; 0x800071 <debounceCounter.1862>
 28e:	7f 5f       	subi	r23, 0xFF	; 255
 290:	70 93 71 00 	sts	0x0071, r23	; 0x800071 <debounceCounter.1862>
 294:	75 36       	cpi	r23, 0x65	; 101
 296:	48 f1       	brcs	.+82     	; 0x2ea <buttonHandler+0x18e>
 298:	90 91 70 00 	lds	r25, 0x0070	; 0x800070 <__data_end>
 29c:	92 30       	cpi	r25, 0x02	; 2
 29e:	c1 f4       	brne	.+48     	; 0x2d0 <buttonHandler+0x174>
 2a0:	c2 30       	cpi	r28, 0x02	; 2
 2a2:	81 f0       	breq	.+32     	; 0x2c4 <buttonHandler+0x168>
 2a4:	30 f4       	brcc	.+12     	; 0x2b2 <buttonHandler+0x156>
 2a6:	cc 23       	and	r28, r28
 2a8:	59 f0       	breq	.+22     	; 0x2c0 <buttonHandler+0x164>
 2aa:	c1 30       	cpi	r28, 0x01	; 1
 2ac:	d9 f4       	brne	.+54     	; 0x2e4 <buttonHandler+0x188>
 2ae:	b1 ea       	ldi	r27, 0xA1	; 161
 2b0:	14 c0       	rjmp	.+40     	; 0x2da <buttonHandler+0x17e>
 2b2:	c4 30       	cpi	r28, 0x04	; 4
 2b4:	59 f0       	breq	.+22     	; 0x2cc <buttonHandler+0x170>
 2b6:	40 f0       	brcs	.+16     	; 0x2c8 <buttonHandler+0x16c>
 2b8:	c5 30       	cpi	r28, 0x05	; 5
 2ba:	a1 f4       	brne	.+40     	; 0x2e4 <buttonHandler+0x188>
 2bc:	b6 ea       	ldi	r27, 0xA6	; 166
 2be:	0d c0       	rjmp	.+26     	; 0x2da <buttonHandler+0x17e>
 2c0:	b4 ea       	ldi	r27, 0xA4	; 164
 2c2:	0b c0       	rjmp	.+22     	; 0x2da <buttonHandler+0x17e>
 2c4:	b3 ea       	ldi	r27, 0xA3	; 163
 2c6:	09 c0       	rjmp	.+18     	; 0x2da <buttonHandler+0x17e>
 2c8:	b2 ea       	ldi	r27, 0xA2	; 162
 2ca:	07 c0       	rjmp	.+14     	; 0x2da <buttonHandler+0x17e>
 2cc:	b5 ea       	ldi	r27, 0xA5	; 165
 2ce:	05 c0       	rjmp	.+10     	; 0x2da <buttonHandler+0x17e>
 2d0:	c1 30       	cpi	r28, 0x01	; 1
 2d2:	11 f0       	breq	.+4      	; 0x2d8 <buttonHandler+0x17c>
 2d4:	c3 30       	cpi	r28, 0x03	; 3
 2d6:	31 f4       	brne	.+12     	; 0x2e4 <buttonHandler+0x188>
 2d8:	b0 ea       	ldi	r27, 0xA0	; 160
 2da:	bc b9       	out	0x0c, r27	; 12
 2dc:	03 c0       	rjmp	.+6      	; 0x2e4 <buttonHandler+0x188>
 2de:	20 e0       	ldi	r18, 0x00	; 0
 2e0:	30 e0       	ldi	r19, 0x00	; 0
 2e2:	03 c0       	rjmp	.+6      	; 0x2ea <buttonHandler+0x18e>
 2e4:	20 e0       	ldi	r18, 0x00	; 0
 2e6:	30 e0       	ldi	r19, 0x00	; 0
 2e8:	90 e0       	ldi	r25, 0x00	; 0
 2ea:	f8 01       	movw	r30, r16
 2ec:	90 83       	st	Z, r25
 2ee:	32 83       	std	Z+2, r19	; 0x02
 2f0:	21 83       	std	Z+1, r18	; 0x01
 2f2:	cf 91       	pop	r28
 2f4:	1f 91       	pop	r17
 2f6:	0f 91       	pop	r16
 2f8:	08 95       	ret

000002fa <buttonFsm>:
 2fa:	0f 93       	push	r16
 2fc:	1f 93       	push	r17
 2fe:	cf 93       	push	r28
 300:	02 e7       	ldi	r16, 0x72	; 114
 302:	10 e0       	ldi	r17, 0x00	; 0
 304:	c0 e0       	ldi	r28, 0x00	; 0
 306:	b8 01       	movw	r22, r16
 308:	8c 2f       	mov	r24, r28
 30a:	28 df       	rcall	.-432    	; 0x15c <buttonHandler>
 30c:	cf 5f       	subi	r28, 0xFF	; 255
 30e:	0d 5f       	subi	r16, 0xFD	; 253
 310:	1f 4f       	sbci	r17, 0xFF	; 255
 312:	c6 30       	cpi	r28, 0x06	; 6
 314:	c1 f7       	brne	.-16     	; 0x306 <buttonFsm+0xc>
 316:	cf 91       	pop	r28
 318:	1f 91       	pop	r17
 31a:	0f 91       	pop	r16
 31c:	08 95       	ret

0000031e <ledInit>:
 31e:	0f 93       	push	r16
 320:	1f 93       	push	r17
 322:	cf 93       	push	r28
 324:	df 93       	push	r29
 326:	c0 e8       	ldi	r28, 0x80	; 128
 328:	d0 e0       	ldi	r29, 0x00	; 0
 32a:	ce 01       	movw	r24, r28
 32c:	65 d0       	rcall	.+202    	; 0x3f8 <getGpioStructFromFlash>
 32e:	8c 01       	movw	r16, r24
 330:	61 e0       	ldi	r22, 0x01	; 1
 332:	35 d0       	rcall	.+106    	; 0x39e <setGpioDirection>
 334:	60 e0       	ldi	r22, 0x00	; 0
 336:	c8 01       	movw	r24, r16
 338:	41 d0       	rcall	.+130    	; 0x3bc <setGpioState>
 33a:	27 96       	adiw	r28, 0x07	; 7
 33c:	80 e0       	ldi	r24, 0x00	; 0
 33e:	c1 3b       	cpi	r28, 0xB1	; 177
 340:	d8 07       	cpc	r29, r24
 342:	99 f7       	brne	.-26     	; 0x32a <ledInit+0xc>
 344:	df 91       	pop	r29
 346:	cf 91       	pop	r28
 348:	1f 91       	pop	r17
 34a:	0f 91       	pop	r16
 34c:	08 95       	ret

0000034e <switchLedTo>:
 34e:	cf 93       	push	r28
 350:	90 91 62 00 	lds	r25, 0x0062	; 0x800062 <prevSource>
 354:	98 17       	cp	r25, r24
 356:	09 f1       	breq	.+66     	; 0x39a <switchLedTo+0x4c>
 358:	c8 2f       	mov	r28, r24
 35a:	80 91 84 00 	lds	r24, 0x0084	; 0x800084 <prevState>
 35e:	81 30       	cpi	r24, 0x01	; 1
 360:	59 f4       	brne	.+22     	; 0x378 <switchLedTo+0x2a>
 362:	10 92 84 00 	sts	0x0084, r1	; 0x800084 <prevState>
 366:	27 e0       	ldi	r18, 0x07	; 7
 368:	92 9f       	mul	r25, r18
 36a:	c0 01       	movw	r24, r0
 36c:	11 24       	eor	r1, r1
 36e:	80 58       	subi	r24, 0x80	; 128
 370:	9f 4f       	sbci	r25, 0xFF	; 255
 372:	42 d0       	rcall	.+132    	; 0x3f8 <getGpioStructFromFlash>
 374:	60 e0       	ldi	r22, 0x00	; 0
 376:	22 d0       	rcall	.+68     	; 0x3bc <setGpioState>
 378:	c0 93 62 00 	sts	0x0062, r28	; 0x800062 <prevSource>
 37c:	c7 30       	cpi	r28, 0x07	; 7
 37e:	69 f0       	breq	.+26     	; 0x39a <switchLedTo+0x4c>
 380:	31 e0       	ldi	r19, 0x01	; 1
 382:	30 93 84 00 	sts	0x0084, r19	; 0x800084 <prevState>
 386:	47 e0       	ldi	r20, 0x07	; 7
 388:	c4 9f       	mul	r28, r20
 38a:	c0 01       	movw	r24, r0
 38c:	11 24       	eor	r1, r1
 38e:	80 58       	subi	r24, 0x80	; 128
 390:	9f 4f       	sbci	r25, 0xFF	; 255
 392:	32 d0       	rcall	.+100    	; 0x3f8 <getGpioStructFromFlash>
 394:	61 e0       	ldi	r22, 0x01	; 1
 396:	cf 91       	pop	r28
 398:	11 c0       	rjmp	.+34     	; 0x3bc <setGpioState>
 39a:	cf 91       	pop	r28
 39c:	08 95       	ret

0000039e <setGpioDirection>:
 39e:	dc 01       	movw	r26, r24
 3a0:	ed 91       	ld	r30, X+
 3a2:	fc 91       	ld	r31, X
 3a4:	11 97       	sbiw	r26, 0x01	; 1
 3a6:	16 96       	adiw	r26, 0x06	; 6
 3a8:	8c 91       	ld	r24, X
 3aa:	90 81       	ld	r25, Z
 3ac:	61 11       	cpse	r22, r1
 3ae:	03 c0       	rjmp	.+6      	; 0x3b6 <setGpioDirection+0x18>
 3b0:	80 95       	com	r24
 3b2:	89 23       	and	r24, r25
 3b4:	01 c0       	rjmp	.+2      	; 0x3b8 <setGpioDirection+0x1a>
 3b6:	89 2b       	or	r24, r25
 3b8:	80 83       	st	Z, r24
 3ba:	08 95       	ret

000003bc <setGpioState>:
 3bc:	dc 01       	movw	r26, r24
 3be:	12 96       	adiw	r26, 0x02	; 2
 3c0:	ed 91       	ld	r30, X+
 3c2:	fc 91       	ld	r31, X
 3c4:	13 97       	sbiw	r26, 0x03	; 3
 3c6:	16 96       	adiw	r26, 0x06	; 6
 3c8:	8c 91       	ld	r24, X
 3ca:	90 81       	ld	r25, Z
 3cc:	61 11       	cpse	r22, r1
 3ce:	03 c0       	rjmp	.+6      	; 0x3d6 <setGpioState+0x1a>
 3d0:	80 95       	com	r24
 3d2:	89 23       	and	r24, r25
 3d4:	01 c0       	rjmp	.+2      	; 0x3d8 <setGpioState+0x1c>
 3d6:	89 2b       	or	r24, r25
 3d8:	80 83       	st	Z, r24
 3da:	08 95       	ret

000003dc <getGpioState>:
 3dc:	dc 01       	movw	r26, r24
 3de:	14 96       	adiw	r26, 0x04	; 4
 3e0:	ed 91       	ld	r30, X+
 3e2:	fc 91       	ld	r31, X
 3e4:	15 97       	sbiw	r26, 0x05	; 5
 3e6:	20 81       	ld	r18, Z
 3e8:	16 96       	adiw	r26, 0x06	; 6
 3ea:	8c 91       	ld	r24, X
 3ec:	92 2f       	mov	r25, r18
 3ee:	98 23       	and	r25, r24
 3f0:	81 e0       	ldi	r24, 0x01	; 1
 3f2:	09 f4       	brne	.+2      	; 0x3f6 <getGpioState+0x1a>
 3f4:	80 e0       	ldi	r24, 0x00	; 0
 3f6:	08 95       	ret

000003f8 <getGpioStructFromFlash>:
 3f8:	47 e0       	ldi	r20, 0x07	; 7
 3fa:	50 e0       	ldi	r21, 0x00	; 0
 3fc:	bc 01       	movw	r22, r24
 3fe:	85 e8       	ldi	r24, 0x85	; 133
 400:	90 e0       	ldi	r25, 0x00	; 0
 402:	2d d1       	rcall	.+602    	; 0x65e <memcpy_P>
 404:	85 e8       	ldi	r24, 0x85	; 133
 406:	90 e0       	ldi	r25, 0x00	; 0
 408:	08 95       	ret

0000040a <setTim2Wgm>:
 40a:	95 b5       	in	r25, 0x25	; 37
 40c:	80 ff       	sbrs	r24, 0
 40e:	02 c0       	rjmp	.+4      	; 0x414 <setTim2Wgm+0xa>
 410:	90 64       	ori	r25, 0x40	; 64
 412:	01 c0       	rjmp	.+2      	; 0x416 <setTim2Wgm+0xc>
 414:	9f 7b       	andi	r25, 0xBF	; 191
 416:	95 bd       	out	0x25, r25	; 37
 418:	81 ff       	sbrs	r24, 1
 41a:	03 c0       	rjmp	.+6      	; 0x422 <setTim2Wgm+0x18>
 41c:	85 b5       	in	r24, 0x25	; 37
 41e:	88 60       	ori	r24, 0x08	; 8
 420:	02 c0       	rjmp	.+4      	; 0x426 <setTim2Wgm+0x1c>
 422:	85 b5       	in	r24, 0x25	; 37
 424:	87 7f       	andi	r24, 0xF7	; 247
 426:	85 bd       	out	0x25, r24	; 37
 428:	08 95       	ret

0000042a <setTim2Csm>:
 42a:	95 b5       	in	r25, 0x25	; 37
 42c:	98 7f       	andi	r25, 0xF8	; 248
 42e:	95 bd       	out	0x25, r25	; 37
 430:	14 bc       	out	0x24, r1	; 36
 432:	25 b5       	in	r18, 0x25	; 37
 434:	82 2b       	or	r24, r18
 436:	85 bd       	out	0x25, r24	; 37
 438:	08 95       	ret

0000043a <setTim2Imr>:
 43a:	99 b7       	in	r25, 0x39	; 57
 43c:	9f 73       	andi	r25, 0x3F	; 63
 43e:	99 bf       	out	0x39, r25	; 57
 440:	29 b7       	in	r18, 0x39	; 57
 442:	82 2b       	or	r24, r18
 444:	89 bf       	out	0x39, r24	; 57
 446:	08 95       	ret

00000448 <tim2Init>:
 448:	82 e0       	ldi	r24, 0x02	; 2
 44a:	df df       	rcall	.-66     	; 0x40a <setTim2Wgm>
 44c:	80 e8       	ldi	r24, 0x80	; 128
 44e:	f5 df       	rcall	.-22     	; 0x43a <setTim2Imr>
 450:	8a ef       	ldi	r24, 0xFA	; 250
 452:	83 bd       	out	0x23, r24	; 35
 454:	83 e0       	ldi	r24, 0x03	; 3
 456:	e9 cf       	rjmp	.-46     	; 0x42a <setTim2Csm>

00000458 <__vector_3>:
 458:	1f 92       	push	r1
 45a:	0f 92       	push	r0
 45c:	0f b6       	in	r0, 0x3f	; 63
 45e:	0f 92       	push	r0
 460:	11 24       	eor	r1, r1
 462:	8f 93       	push	r24
 464:	81 e0       	ldi	r24, 0x01	; 1
 466:	80 93 96 00 	sts	0x0096, r24	; 0x800096 <isTick>
 46a:	8f 91       	pop	r24
 46c:	0f 90       	pop	r0
 46e:	0f be       	out	0x3f, r0	; 63
 470:	0f 90       	pop	r0
 472:	1f 90       	pop	r1
 474:	18 95       	reti

00000476 <setTim1Wgm>:
 476:	9f b5       	in	r25, 0x2f	; 47
 478:	80 ff       	sbrs	r24, 0
 47a:	02 c0       	rjmp	.+4      	; 0x480 <setTim1Wgm+0xa>
 47c:	91 60       	ori	r25, 0x01	; 1
 47e:	01 c0       	rjmp	.+2      	; 0x482 <setTim1Wgm+0xc>
 480:	9e 7f       	andi	r25, 0xFE	; 254
 482:	9f bd       	out	0x2f, r25	; 47
 484:	2f b5       	in	r18, 0x2f	; 47
 486:	81 ff       	sbrs	r24, 1
 488:	02 c0       	rjmp	.+4      	; 0x48e <setTim1Wgm+0x18>
 48a:	22 60       	ori	r18, 0x02	; 2
 48c:	01 c0       	rjmp	.+2      	; 0x490 <setTim1Wgm+0x1a>
 48e:	2d 7f       	andi	r18, 0xFD	; 253
 490:	2f bd       	out	0x2f, r18	; 47
 492:	3e b5       	in	r19, 0x2e	; 46
 494:	82 ff       	sbrs	r24, 2
 496:	02 c0       	rjmp	.+4      	; 0x49c <setTim1Wgm+0x26>
 498:	38 60       	ori	r19, 0x08	; 8
 49a:	01 c0       	rjmp	.+2      	; 0x49e <setTim1Wgm+0x28>
 49c:	37 7f       	andi	r19, 0xF7	; 247
 49e:	3e bd       	out	0x2e, r19	; 46
 4a0:	83 ff       	sbrs	r24, 3
 4a2:	03 c0       	rjmp	.+6      	; 0x4aa <setTim1Wgm+0x34>
 4a4:	8e b5       	in	r24, 0x2e	; 46
 4a6:	80 61       	ori	r24, 0x10	; 16
 4a8:	02 c0       	rjmp	.+4      	; 0x4ae <setTim1Wgm+0x38>
 4aa:	8e b5       	in	r24, 0x2e	; 46
 4ac:	8f 7e       	andi	r24, 0xEF	; 239
 4ae:	8e bd       	out	0x2e, r24	; 46
 4b0:	08 95       	ret

000004b2 <setTim1Com>:
 4b2:	88 23       	and	r24, r24
 4b4:	19 f0       	breq	.+6      	; 0x4bc <setTim1Com+0xa>
 4b6:	81 30       	cpi	r24, 0x01	; 1
 4b8:	79 f0       	breq	.+30     	; 0x4d8 <setTim1Com+0x26>
 4ba:	08 95       	ret
 4bc:	3f b5       	in	r19, 0x2f	; 47
 4be:	60 ff       	sbrs	r22, 0
 4c0:	02 c0       	rjmp	.+4      	; 0x4c6 <setTim1Com+0x14>
 4c2:	30 64       	ori	r19, 0x40	; 64
 4c4:	01 c0       	rjmp	.+2      	; 0x4c8 <setTim1Com+0x16>
 4c6:	3f 7b       	andi	r19, 0xBF	; 191
 4c8:	3f bd       	out	0x2f, r19	; 47
 4ca:	2f b5       	in	r18, 0x2f	; 47
 4cc:	61 ff       	sbrs	r22, 1
 4ce:	02 c0       	rjmp	.+4      	; 0x4d4 <setTim1Com+0x22>
 4d0:	20 68       	ori	r18, 0x80	; 128
 4d2:	0f c0       	rjmp	.+30     	; 0x4f2 <setTim1Com+0x40>
 4d4:	2f 77       	andi	r18, 0x7F	; 127
 4d6:	0d c0       	rjmp	.+26     	; 0x4f2 <setTim1Com+0x40>
 4d8:	8f b5       	in	r24, 0x2f	; 47
 4da:	60 ff       	sbrs	r22, 0
 4dc:	02 c0       	rjmp	.+4      	; 0x4e2 <setTim1Com+0x30>
 4de:	80 61       	ori	r24, 0x10	; 16
 4e0:	01 c0       	rjmp	.+2      	; 0x4e4 <setTim1Com+0x32>
 4e2:	8f 7e       	andi	r24, 0xEF	; 239
 4e4:	8f bd       	out	0x2f, r24	; 47
 4e6:	2f b5       	in	r18, 0x2f	; 47
 4e8:	61 ff       	sbrs	r22, 1
 4ea:	02 c0       	rjmp	.+4      	; 0x4f0 <setTim1Com+0x3e>
 4ec:	20 62       	ori	r18, 0x20	; 32
 4ee:	01 c0       	rjmp	.+2      	; 0x4f2 <setTim1Com+0x40>
 4f0:	2f 7d       	andi	r18, 0xDF	; 223
 4f2:	2f bd       	out	0x2f, r18	; 47
 4f4:	08 95       	ret

000004f6 <setTim1Ocr>:
 4f6:	88 23       	and	r24, r24
 4f8:	19 f0       	breq	.+6      	; 0x500 <setTim1Ocr+0xa>
 4fa:	81 30       	cpi	r24, 0x01	; 1
 4fc:	21 f0       	breq	.+8      	; 0x506 <setTim1Ocr+0x10>
 4fe:	08 95       	ret
 500:	7b bd       	out	0x2b, r23	; 43
 502:	6a bd       	out	0x2a, r22	; 42
 504:	08 95       	ret
 506:	79 bd       	out	0x29, r23	; 41
 508:	68 bd       	out	0x28, r22	; 40
 50a:	08 95       	ret

0000050c <setTim1Csm>:
 50c:	9e b5       	in	r25, 0x2e	; 46
 50e:	98 7f       	andi	r25, 0xF8	; 248
 510:	9e bd       	out	0x2e, r25	; 46
 512:	1d bc       	out	0x2d, r1	; 45
 514:	1c bc       	out	0x2c, r1	; 44
 516:	2e b5       	in	r18, 0x2e	; 46
 518:	82 2b       	or	r24, r18
 51a:	8e bd       	out	0x2e, r24	; 46
 51c:	08 95       	ret

0000051e <uartInit>:
 51e:	10 bc       	out	0x20, r1	; 32
 520:	80 e1       	ldi	r24, 0x10	; 16
 522:	89 b9       	out	0x09, r24	; 9
 524:	59 9a       	sbi	0x0b, 1	; 11
 526:	28 e9       	ldi	r18, 0x98	; 152
 528:	2a b9       	out	0x0a, r18	; 10
 52a:	36 e8       	ldi	r19, 0x86	; 134
 52c:	30 bd       	out	0x20, r19	; 32
 52e:	08 95       	ret

00000530 <__vector_11>:
 530:	1f 92       	push	r1
 532:	0f 92       	push	r0
 534:	0f b6       	in	r0, 0x3f	; 63
 536:	0f 92       	push	r0
 538:	11 24       	eor	r1, r1
 53a:	2f 93       	push	r18
 53c:	8f 93       	push	r24
 53e:	9f 93       	push	r25
 540:	ef 93       	push	r30
 542:	ff 93       	push	r31
 544:	8c b1       	in	r24, 0x0c	; 12
 546:	e0 91 63 00 	lds	r30, 0x0063	; 0x800063 <state.1823>
 54a:	f0 91 64 00 	lds	r31, 0x0064	; 0x800064 <state.1823+0x1>
 54e:	09 94       	ijmp
 550:	89 38       	cpi	r24, 0x89	; 137
 552:	11 f5       	brne	.+68     	; 0x598 <__vector_11+0x68>
 554:	ed ea       	ldi	r30, 0xAD	; 173
 556:	f2 e0       	ldi	r31, 0x02	; 2
 558:	1b c0       	rjmp	.+54     	; 0x590 <__vector_11+0x60>
 55a:	80 93 8c 00 	sts	0x008C, r24	; 0x80008c <command.1825>
 55e:	e2 eb       	ldi	r30, 0xB2	; 178
 560:	f2 e0       	ldi	r31, 0x02	; 2
 562:	16 c0       	rjmp	.+44     	; 0x590 <__vector_11+0x60>
 564:	90 91 8c 00 	lds	r25, 0x008C	; 0x80008c <command.1825>
 568:	29 e8       	ldi	r18, 0x89	; 137
 56a:	29 0f       	add	r18, r25
 56c:	82 13       	cpse	r24, r18
 56e:	0e c0       	rjmp	.+28     	; 0x58c <__vector_11+0x5c>
 570:	80 91 8d 00 	lds	r24, 0x008D	; 0x80008d <queueCnt>
 574:	87 30       	cpi	r24, 0x07	; 7
 576:	51 f0       	breq	.+20     	; 0x58c <__vector_11+0x5c>
 578:	e0 91 8d 00 	lds	r30, 0x008D	; 0x80008d <queueCnt>
 57c:	21 e0       	ldi	r18, 0x01	; 1
 57e:	2e 0f       	add	r18, r30
 580:	20 93 8d 00 	sts	0x008D, r18	; 0x80008d <queueCnt>
 584:	f0 e0       	ldi	r31, 0x00	; 0
 586:	e2 57       	subi	r30, 0x72	; 114
 588:	ff 4f       	sbci	r31, 0xFF	; 255
 58a:	90 83       	st	Z, r25
 58c:	e8 ea       	ldi	r30, 0xA8	; 168
 58e:	f2 e0       	ldi	r31, 0x02	; 2
 590:	f0 93 64 00 	sts	0x0064, r31	; 0x800064 <state.1823+0x1>
 594:	e0 93 63 00 	sts	0x0063, r30	; 0x800063 <state.1823>
 598:	ff 91       	pop	r31
 59a:	ef 91       	pop	r30
 59c:	9f 91       	pop	r25
 59e:	8f 91       	pop	r24
 5a0:	2f 91       	pop	r18
 5a2:	0f 90       	pop	r0
 5a4:	0f be       	out	0x3f, r0	; 63
 5a6:	0f 90       	pop	r0
 5a8:	1f 90       	pop	r1
 5aa:	18 95       	reti

000005ac <getUartCmdFormQueue>:
 5ac:	80 91 8e 00 	lds	r24, 0x008E	; 0x80008e <cmdQueue>
 5b0:	50 e0       	ldi	r21, 0x00	; 0
 5b2:	20 91 8d 00 	lds	r18, 0x008D	; 0x80008d <queueCnt>
 5b6:	52 17       	cp	r21, r18
 5b8:	60 f4       	brcc	.+24     	; 0x5d2 <getUartCmdFormQueue+0x26>
 5ba:	25 2f       	mov	r18, r21
 5bc:	30 e0       	ldi	r19, 0x00	; 0
 5be:	f9 01       	movw	r30, r18
 5c0:	e1 57       	subi	r30, 0x71	; 113
 5c2:	ff 4f       	sbci	r31, 0xFF	; 255
 5c4:	40 81       	ld	r20, Z
 5c6:	f9 01       	movw	r30, r18
 5c8:	e2 57       	subi	r30, 0x72	; 114
 5ca:	ff 4f       	sbci	r31, 0xFF	; 255
 5cc:	40 83       	st	Z, r20
 5ce:	5f 5f       	subi	r21, 0xFF	; 255
 5d0:	f0 cf       	rjmp	.-32     	; 0x5b2 <getUartCmdFormQueue+0x6>
 5d2:	e0 91 8d 00 	lds	r30, 0x008D	; 0x80008d <queueCnt>
 5d6:	9f ef       	ldi	r25, 0xFF	; 255
 5d8:	9e 0f       	add	r25, r30
 5da:	90 93 8d 00 	sts	0x008D, r25	; 0x80008d <queueCnt>
 5de:	f0 e0       	ldi	r31, 0x00	; 0
 5e0:	e2 57       	subi	r30, 0x72	; 114
 5e2:	ff 4f       	sbci	r31, 0xFF	; 255
 5e4:	10 82       	st	Z, r1
 5e6:	08 95       	ret

000005e8 <isCmdQueueEmpty>:
 5e8:	90 91 8d 00 	lds	r25, 0x008D	; 0x80008d <queueCnt>
 5ec:	81 e0       	ldi	r24, 0x01	; 1
 5ee:	91 11       	cpse	r25, r1
 5f0:	80 e0       	ldi	r24, 0x00	; 0
 5f2:	08 95       	ret

000005f4 <main>:
 5f4:	94 df       	rcall	.-216    	; 0x51e <uartInit>
 5f6:	93 de       	rcall	.-730    	; 0x31e <ledInit>
 5f8:	19 d0       	rcall	.+50     	; 0x62c <pwmInit>
 5fa:	26 df       	rcall	.-436    	; 0x448 <tim2Init>
 5fc:	8c dd       	rcall	.-1256   	; 0x116 <buttonInit>
 5fe:	78 94       	sei
 600:	80 91 96 00 	lds	r24, 0x0096	; 0x800096 <isTick>
 604:	88 23       	and	r24, r24
 606:	e1 f3       	breq	.-8      	; 0x600 <main+0xc>
 608:	10 92 96 00 	sts	0x0096, r1	; 0x800096 <isTick>
 60c:	ed df       	rcall	.-38     	; 0x5e8 <isCmdQueueEmpty>
 60e:	81 11       	cpse	r24, r1
 610:	0b c0       	rjmp	.+22     	; 0x628 <main+0x34>
 612:	cc df       	rcall	.-104    	; 0x5ac <getUartCmdFormQueue>
 614:	c8 2f       	mov	r28, r24
 616:	82 95       	swap	r24
 618:	8f 70       	andi	r24, 0x0F	; 15
 61a:	74 dd       	rcall	.-1304   	; 0x104 <getActionByRxCommand>
 61c:	fc 01       	movw	r30, r24
 61e:	89 2b       	or	r24, r25
 620:	19 f0       	breq	.+6      	; 0x628 <main+0x34>
 622:	8c 2f       	mov	r24, r28
 624:	8f 70       	andi	r24, 0x0F	; 15
 626:	09 95       	icall
 628:	68 de       	rcall	.-816    	; 0x2fa <buttonFsm>
 62a:	ea cf       	rjmp	.-44     	; 0x600 <main+0xc>

0000062c <pwmInit>:
 62c:	ba 9a       	sbi	0x17, 2	; 23
 62e:	8f e0       	ldi	r24, 0x0F	; 15
 630:	22 df       	rcall	.-444    	; 0x476 <setTim1Wgm>
 632:	64 e6       	ldi	r22, 0x64	; 100
 634:	70 e0       	ldi	r23, 0x00	; 0
 636:	80 e0       	ldi	r24, 0x00	; 0
 638:	5e df       	rcall	.-324    	; 0x4f6 <setTim1Ocr>
 63a:	64 e6       	ldi	r22, 0x64	; 100
 63c:	70 e0       	ldi	r23, 0x00	; 0
 63e:	81 e0       	ldi	r24, 0x01	; 1
 640:	5a df       	rcall	.-332    	; 0x4f6 <setTim1Ocr>
 642:	60 e0       	ldi	r22, 0x00	; 0
 644:	81 e0       	ldi	r24, 0x01	; 1
 646:	35 df       	rcall	.-406    	; 0x4b2 <setTim1Com>
 648:	62 e0       	ldi	r22, 0x02	; 2
 64a:	81 e0       	ldi	r24, 0x01	; 1
 64c:	32 df       	rcall	.-412    	; 0x4b2 <setTim1Com>
 64e:	81 e0       	ldi	r24, 0x01	; 1
 650:	5d cf       	rjmp	.-326    	; 0x50c <setTim1Csm>

00000652 <setPwmLvl>:
 652:	64 e6       	ldi	r22, 0x64	; 100
 654:	70 e0       	ldi	r23, 0x00	; 0
 656:	68 1b       	sub	r22, r24
 658:	71 09       	sbc	r23, r1
 65a:	81 e0       	ldi	r24, 0x01	; 1
 65c:	4c cf       	rjmp	.-360    	; 0x4f6 <setTim1Ocr>

0000065e <memcpy_P>:
 65e:	fb 01       	movw	r30, r22
 660:	dc 01       	movw	r26, r24
 662:	02 c0       	rjmp	.+4      	; 0x668 <memcpy_P+0xa>
 664:	05 90       	lpm	r0, Z+
 666:	0d 92       	st	X+, r0
 668:	41 50       	subi	r20, 0x01	; 1
 66a:	50 40       	sbci	r21, 0x00	; 0
 66c:	d8 f7       	brcc	.-10     	; 0x664 <memcpy_P+0x6>
 66e:	08 95       	ret

00000670 <_exit>:
 670:	f8 94       	cli

00000672 <__stop_program>:
 672:	ff cf       	rjmp	.-2      	; 0x672 <__stop_program>
